target datalayout = "e-m:e-p270:32:32-p271:32:32-p272:64:64-i64:64-i128:128-f80:128-n8:16:32:64-S128"
target triple = "x86_64-pc-linux-gnu"

%struct.Cnf_Cut_t_ = type { i8, i8, i16, [2 x ptr], [0 x i32] }

; Function Attrs: nounwind uwtable
define void @Cnf_CutInsertIthVar(ptr noundef %0, i32 noundef %1, i32 noundef %2) #0 {
  %4 = alloca ptr, align 8
  %5 = alloca i32, align 4
  %6 = alloca i32, align 4
  %7 = alloca i32, align 4
  store ptr %0, ptr %4, align 8, !tbaa !18
  store i32 %1, ptr %5, align 4, !tbaa !8
  store i32 %2, ptr %6, align 4, !tbaa !8
  call void @llvm.lifetime.start.p0(i64 4, ptr %7) #7
  %8 = load ptr, ptr %4, align 8, !tbaa !18
  %9 = getelementptr inbounds nuw %struct.Cnf_Cut_t_, ptr %8, i32 0, i32 0
  %10 = load i8, ptr %9, align 8, !tbaa !20
  %11 = sext i8 %10 to i32
  store i32 %11, ptr %7, align 4, !tbaa !8
  br label %12

12:                                               ; preds = %29, %3
  %13 = load i32, ptr %7, align 4, !tbaa !8
  %14 = load i32, ptr %5, align 4, !tbaa !8
  %15 = icmp sgt i32 %13, %14
  br i1 %15, label %16, label %32

16:                                               ; preds = %12
  %17 = load ptr, ptr %4, align 8, !tbaa !18
  %18 = getelementptr inbounds nuw %struct.Cnf_Cut_t_, ptr %17, i32 0, i32 4
  %19 = load i32, ptr %7, align 4, !tbaa !8
  %20 = sub nsw i32 %19, 1
  %21 = sext i32 %20 to i64
  %22 = getelementptr inbounds [0 x i32], ptr %18, i64 0, i64 %21
  %23 = load i32, ptr %22, align 4, !tbaa !8
  %24 = load ptr, ptr %4, align 8, !tbaa !18
  %25 = getelementptr inbounds nuw %struct.Cnf_Cut_t_, ptr %24, i32 0, i32 4
  %26 = load i32, ptr %7, align 4, !tbaa !8
  %27 = sext i32 %26 to i64
  %28 = getelementptr inbounds [0 x i32], ptr %25, i64 0, i64 %27
  store i32 %23, ptr %28, align 4, !tbaa !8
  br label %29

29:                                               ; preds = %16
  %30 = load i32, ptr %7, align 4, !tbaa !8
  %31 = add nsw i32 %30, -1
  store i32 %31, ptr %7, align 4, !tbaa !8
  br label %12, !llvm.loop !52

32:                                               ; preds = %12
  %33 = load i32, ptr %6, align 4, !tbaa !8
  %34 = load ptr, ptr %4, align 8, !tbaa !18
  %35 = getelementptr inbounds nuw %struct.Cnf_Cut_t_, ptr %34, i32 0, i32 4
  %36 = load i32, ptr %5, align 4, !tbaa !8
  %37 = sext i32 %36 to i64
  %38 = getelementptr inbounds [0 x i32], ptr %35, i64 0, i64 %37
  store i32 %33, ptr %38, align 4, !tbaa !8
  %39 = load ptr, ptr %4, align 8, !tbaa !18
  %40 = getelementptr inbounds nuw %struct.Cnf_Cut_t_, ptr %39, i32 0, i32 0
  %41 = load i8, ptr %40, align 8, !tbaa !20
  %42 = add i8 %41, 1
  store i8 %42, ptr %40, align 8, !tbaa !20
  call void @llvm.lifetime.end.p0(i64 4, ptr %7) #7
  ret void
}