; Function Attrs: nofree norecurse nosync nounwind memory(argmem: readwrite) uwtable
define void @Cnf_CutInsertIthVar(ptr noundef captures(none) %0, i32 noundef %1, i32 noundef %2) local_unnamed_addr #7 {
  %4 = load i8, ptr %0, align 8, !tbaa !15
  %5 = sext i8 %4 to i32
  %6 = icmp slt i32 %1, %5
  br i1 %6, label %.lr.ph, label %.._crit_edge_crit_edge

.._crit_edge_crit_edge:                           ; preds = %3
  %.pre = sext i32 %1 to i64
  br label %._crit_edge

.lr.ph:                                           ; preds = %3
  %7 = getelementptr inbounds nuw i8, ptr %0, i64 24
  %8 = sext i8 %4 to i64
  %9 = sext i32 %1 to i64
  br label %10

10:                                               ; preds = %.lr.ph, %10
  %indvars.iv = phi i64 [ %8, %.lr.ph ], [ %indvars.iv.next, %10 ]
  %indvars.iv.next = add nsw i64 %indvars.iv, -1
  %11 = getelementptr inbounds [0 x i32], ptr %7, i64 0, i64 %indvars.iv.next
  %12 = load i32, ptr %11, align 4, !tbaa !26
  %13 = getelementptr inbounds [0 x i32], ptr %7, i64 0, i64 %indvars.iv
  store i32 %12, ptr %13, align 4, !tbaa !26
  %14 = icmp sgt i64 %indvars.iv.next, %9
  br i1 %14, label %10, label %._crit_edge, !llvm.loop !46

._crit_edge:                                      ; preds = %10, %.._crit_edge_crit_edge
  %.pre-phi = phi i64 [ %.pre, %.._crit_edge_crit_edge ], [ %9, %10 ]
  %15 = getelementptr inbounds nuw i8, ptr %0, i64 24
  %16 = getelementptr inbounds [0 x i32], ptr %15, i64 0, i64 %.pre-phi
  store i32 %2, ptr %16, align 4, !tbaa !26
  %17 = add i8 %4, 1
  store i8 %17, ptr %0, align 8, !tbaa !15
  ret void
}